; Function Attrs: nounwind uwtable
define dso_local void @setDeferredReplyBulkSds(ptr noundef %0, ptr noundef %1, ptr noundef %2) local_unnamed_addr #0 {
  %4 = tail call ptr @sdsempty() #26
  %5 = getelementptr inbounds i8, ptr %2, i64 -1
  %6 = load i8, ptr %5, align 1, !tbaa !12
  %7 = zext i8 %6 to i32
  %8 = and i32 %7, 7
  switch i32 %8, label %sdslen.exit [
    i32 0, label %9
    i32 1, label %12
    i32 2, label %16
    i32 3, label %20
    i32 4, label %24
  ]

9:                                                ; preds = %3
  %10 = lshr i32 %7, 3
  %11 = zext nneg i32 %10 to i64
  br label %sdslen.exit

12:                                               ; preds = %3
  %13 = getelementptr inbounds i8, ptr %2, i64 -3
  %14 = load i8, ptr %13, align 1, !tbaa !12
  %15 = zext i8 %14 to i64
  br label %sdslen.exit

16:                                               ; preds = %3
  %17 = getelementptr inbounds i8, ptr %2, i64 -5
  %18 = load i16, ptr %17, align 1, !tbaa !13
  %19 = zext i16 %18 to i64
  br label %sdslen.exit

20:                                               ; preds = %3
  %21 = getelementptr inbounds i8, ptr %2, i64 -9
  %22 = load i32, ptr %21, align 1, !tbaa !15
  %23 = zext i32 %22 to i64
  br label %sdslen.exit

24:                                               ; preds = %3
  %25 = getelementptr inbounds i8, ptr %2, i64 -17
  %26 = load i64, ptr %25, align 1, !tbaa !16
  br label %sdslen.exit

sdslen.exit:                                      ; preds = %3, %9, %12, %16, %20, %24
  %.0.i = phi i64 [ %26, %24 ], [ %23, %20 ], [ %19, %16 ], [ %15, %12 ], [ %11, %9 ], [ 0, %3 ]
  %27 = trunc i64 %.0.i to i32
  %28 = tail call ptr (ptr, ptr, ...) @sdscatprintf(ptr noundef %4, ptr noundef nonnull @.str.34, i32 noundef %27, ptr noundef nonnull %2) #26
  %29 = getelementptr inbounds i8, ptr %28, i64 -1
  %30 = load i8, ptr %29, align 1, !tbaa !12
  %31 = zext i8 %30 to i32
  %32 = and i32 %31, 7
  switch i32 %32, label %sdslen.exit9 [
    i32 0, label %33
    i32 1, label %36
    i32 2, label %40
    i32 3, label %44
    i32 4, label %48
  ]

33:                                               ; preds = %sdslen.exit
  %34 = lshr i32 %31, 3
  %35 = zext nneg i32 %34 to i64
  br label %sdslen.exit9

36:                                               ; preds = %sdslen.exit
  %37 = getelementptr inbounds i8, ptr %28, i64 -3
  %38 = load i8, ptr %37, align 1, !tbaa !12
  %39 = zext i8 %38 to i64
  br label %sdslen.exit9

40:                                               ; preds = %sdslen.exit
  %41 = getelementptr inbounds i8, ptr %28, i64 -5
  %42 = load i16, ptr %41, align 1, !tbaa !13
  %43 = zext i16 %42 to i64
  br label %sdslen.exit9

44:                                               ; preds = %sdslen.exit
  %45 = getelementptr inbounds i8, ptr %28, i64 -9
  %46 = load i32, ptr %45, align 1, !tbaa !15
  %47 = zext i32 %46 to i64
  br label %sdslen.exit9

48:                                               ; preds = %sdslen.exit
  %49 = getelementptr inbounds i8, ptr %28, i64 -17
  %50 = load i64, ptr %49, align 1, !tbaa !16
  br label %sdslen.exit9

sdslen.exit9:                                     ; preds = %sdslen.exit, %33, %36, %40, %44, %48
  %.0.i8 = phi i64 [ %50, %48 ], [ %47, %44 ], [ %43, %40 ], [ %39, %36 ], [ %35, %33 ], [ 0, %sdslen.exit ]
  tail call void @setDeferredReply(ptr noundef %0, ptr noundef %1, ptr noundef nonnull %28, i64 noundef %.0.i8)
  tail call void @sdsfree(ptr noundef nonnull %28) #26
  tail call void @sdsfree(ptr noundef nonnull %2) #26
  ret void
}